(lp0
cnumpy.core.multiarray
_reconstruct
p1
(cnumpy
ndarray
p2
(I0
tp3
S'b'
p4
tp5
Rp6
(I1
(L4L
L1L
tp7
cnumpy
dtype
p8
(S'f8'
p9
I0
I1
tp10
Rp11
(I3
S'<'
p12
NNNI-1
I-1
I0
tp13
bI00
S"{<r\x13\x15\xb3\xa5?\rK&\x9e\xd4:\xb4?\xca\x16\x9f\xd5\xe5z\xe0?'\x98\xd4\x17\x1dK\xe1?"
p14
tp15
bag1
(g2
(I0
tp16
g4
tp17
Rp18
(I1
(L1L
L1L
tp19
g11
I00
S'\x7fg)-$\xaa\xb2\xbf'
p20
tp21
ba.