(lp0
cnumpy.core.multiarray
_reconstruct
p1
(cnumpy
ndarray
p2
(I0
tp3
S'b'
p4
tp5
Rp6
(I1
(L4L
L1L
tp7
cnumpy
dtype
p8
(S'f8'
p9
I0
I1
tp10
Rp11
(I3
S'<'
p12
NNNI-1
I-1
I0
tp13
bI00
S'V\xf3T\xac(\x81\xf1?\xd6\x96\xcb4j\xb7\xd3?c\x8bK\xea\xe5>\xf5\xbf\n}\xe3@\x91\xef\xed\xbf'
p14
tp15
bag1
(g2
(I0
tp16
g4
tp17
Rp18
(I1
(L1L
L1L
tp19
g11
I00
S'A\xe33W\xd1\xcd\xdd?'
p20
tp21
ba.