(lp0
cnumpy.core.multiarray
_reconstruct
p1
(cnumpy
ndarray
p2
(I0
tp3
S'b'
p4
tp5
Rp6
(I1
(L4L
L1L
tp7
cnumpy
dtype
p8
(S'f8'
p9
I0
I1
tp10
Rp11
(I3
S'<'
p12
NNNI-1
I-1
I0
tp13
bI00
S'0\xa9\x00#\x1c\xde\xd4?E\x81\xb5\'g\xf7\xf1?|\x00\xf1er\xef\xea?\xc2\x80\'\xef"\xdd\xf7\xbf'
p14
tp15
bag1
(g2
(I0
tp16
g4
tp17
Rp18
(I1
(L1L
L1L
tp19
g11
I00
S'\xa6\xfb\xb1%\x93\n\xb8?'
p20
tp21
ba.